target datalayout = "e-m:e-p270:32:32-p271:32:32-p272:64:64-i64:64-i128:128-f80:128-n8:16:32:64-S128"
target triple = "x86_64-pc-linux-gnu"

%"class.std::__cxx11::basic_string" = type { %"struct.std::__cxx11::basic_string<char>::_Alloc_hider", i64, %union.anon }
%"struct.std::__cxx11::basic_string<char>::_Alloc_hider" = type { ptr }
%union.anon = type { i64, [8 x i8] }
%"class.std::allocator" = type { i8 }
%"class.std::shared_ptr" = type { %"class.std::__shared_ptr" }
%"class.std::__shared_ptr" = type { ptr, %"class.std::__shared_count" }
%"class.std::__shared_count" = type { ptr }
%"class.open_spiel::dou_dizhu::DouDizhuState" = type <{ %"class.open_spiel::State.base", [4 x i8], %"class.std::vector.6", i32, i32, i32, i32, i32, i32, i8, [3 x i8], i32, i32, i32, i32, i32, %"struct.std::array", %"struct.std::array.11", [4 x i8], %"class.std::vector.12", i32, %"struct.std::array.17", %"class.std::vector.18", %"struct.std::array.23", [4 x i8] }>
%"class.open_spiel::State.base" = type <{ ptr, %"class.std::shared_ptr", i32, i32, %"class.std::vector", i32 }>
%"class.std::vector" = type { %"struct.std::_Vector_base" }
%"struct.std::_Vector_base" = type { %"struct.std::_Vector_base<open_spiel::State::PlayerAction, std::allocator<open_spiel::State::PlayerAction>>::_Vector_impl" }
%"struct.std::_Vector_base<open_spiel::State::PlayerAction, std::allocator<open_spiel::State::PlayerAction>>::_Vector_impl" = type { %"struct.std::_Vector_base<open_spiel::State::PlayerAction, std::allocator<open_spiel::State::PlayerAction>>::_Vector_impl_data" }
%"struct.std::_Vector_base<open_spiel::State::PlayerAction, std::allocator<open_spiel::State::PlayerAction>>::_Vector_impl_data" = type { ptr, ptr, ptr }
%"class.std::vector.6" = type { %"struct.std::_Vector_base.7" }
%"struct.std::_Vector_base.7" = type { %"struct.std::_Vector_base<int, std::allocator<int>>::_Vector_impl" }
%"struct.std::_Vector_base<int, std::allocator<int>>::_Vector_impl" = type { %"struct.std::_Vector_base<int, std::allocator<int>>::_Vector_impl_data" }
%"struct.std::_Vector_base<int, std::allocator<int>>::_Vector_impl_data" = type { ptr, ptr, ptr }
%"struct.std::array" = type { [54 x i32] }
%"struct.std::array.11" = type { [15 x i32] }
%"class.std::vector.12" = type { %"struct.std::_Vector_base.13" }
%"struct.std::_Vector_base.13" = type { %"struct.std::_Vector_base<open_spiel::dou_dizhu::Trick, std::allocator<open_spiel::dou_dizhu::Trick>>::_Vector_impl" }
%"struct.std::_Vector_base<open_spiel::dou_dizhu::Trick, std::allocator<open_spiel::dou_dizhu::Trick>>::_Vector_impl" = type { %"struct.std::_Vector_base<open_spiel::dou_dizhu::Trick, std::allocator<open_spiel::dou_dizhu::Trick>>::_Vector_impl_data" }
%"struct.std::_Vector_base<open_spiel::dou_dizhu::Trick, std::allocator<open_spiel::dou_dizhu::Trick>>::_Vector_impl_data" = type { ptr, ptr, ptr }
%"struct.std::array.17" = type { [3 x i32] }
%"class.std::vector.18" = type { %"struct.std::_Vector_base.19" }
%"struct.std::_Vector_base.19" = type { %"struct.std::_Vector_base<double, std::allocator<double>>::_Vector_impl" }
%"struct.std::_Vector_base<double, std::allocator<double>>::_Vector_impl" = type { %"struct.std::_Vector_base<double, std::allocator<double>>::_Vector_impl_data" }
%"struct.std::_Vector_base<double, std::allocator<double>>::_Vector_impl_data" = type { ptr, ptr, ptr }
%"struct.std::array.23" = type { [3 x %"struct.std::array.11"] }

@.str.45 = private unnamed_addr constant [30 x i8] c"Cannot act in terminal states\00", align 1

; Function Attrs: mustprogress uwtable
define void @_ZN10open_spiel9dou_dizhu13DouDizhuState13DoApplyActionEl(ptr noundef nonnull align 8 dereferenceable(660) %0, i64 noundef %1) unnamed_addr #4 align 2 personality ptr @__gxx_personality_v0 {
  %3 = alloca ptr, align 8
  %4 = alloca i64, align 8
  %5 = alloca %"class.std::__cxx11::basic_string", align 8
  %6 = alloca %"class.std::allocator", align 1
  %7 = alloca ptr, align 8
  %8 = alloca i32, align 4
  store ptr %0, ptr %3, align 8
  store i64 %1, ptr %4, align 8
  %9 = load ptr, ptr %3, align 8
  %10 = getelementptr inbounds nuw %"class.open_spiel::dou_dizhu::DouDizhuState", ptr %9, i32 0, i32 15
  %11 = load i32, ptr %10, align 4
  switch i32 %11, label %33 [
    i32 0, label %12
    i32 1, label %15
    i32 2, label %18
    i32 3, label %21
  ]

12:                                               ; preds = %2
  %13 = load i64, ptr %4, align 8
  %14 = trunc i64 %13 to i32
  call void @_ZN10open_spiel9dou_dizhu13DouDizhuState15ApplyDealActionEi(ptr noundef nonnull align 8 dereferenceable(660) %9, i32 noundef %14)
  br label %33

15:                                               ; preds = %2
  %16 = load i64, ptr %4, align 8
  %17 = trunc i64 %16 to i32
  call void @_ZN10open_spiel9dou_dizhu13DouDizhuState18ApplyBiddingActionEi(ptr noundef nonnull align 8 dereferenceable(660) %9, i32 noundef %17)
  br label %33

18:                                               ; preds = %2
  %19 = load i64, ptr %4, align 8
  %20 = trunc i64 %19 to i32
  call void @_ZN10open_spiel9dou_dizhu13DouDizhuState15ApplyPlayActionEi(ptr noundef nonnull align 8 dereferenceable(660) %9, i32 noundef %20)
  br label %33

21:                                               ; preds = %2
  call void @_ZNSaIcEC1Ev(ptr noundef nonnull align 1 dereferenceable(1) %6) #3
  invoke void @_ZNSt7__cxx1112basic_stringIcSt11char_traitsIcESaIcEEC2IS3_EEPKcRKS3_(ptr noundef nonnull align 8 dereferenceable(32) %5, ptr noundef @.str.45, ptr noundef nonnull align 1 dereferenceable(1) %6)
          to label %22 unwind label %24

22:                                               ; preds = %21
  invoke void @_ZN10open_spiel15SpielFatalErrorERKNSt7__cxx1112basic_stringIcSt11char_traitsIcESaIcEEE(ptr noundef nonnull align 8 dereferenceable(32) %5) #16
          to label %23 unwind label %28

23:                                               ; preds = %22
  unreachable

24:                                               ; preds = %21
  %25 = landingpad { ptr, i32 }
          cleanup
  %26 = extractvalue { ptr, i32 } %25, 0
  store ptr %26, ptr %7, align 8
  %27 = extractvalue { ptr, i32 } %25, 1
  store i32 %27, ptr %8, align 4
  br label %32

28:                                               ; preds = %22
  %29 = landingpad { ptr, i32 }
          cleanup
  %30 = extractvalue { ptr, i32 } %29, 0
  store ptr %30, ptr %7, align 8
  %31 = extractvalue { ptr, i32 } %29, 1
  store i32 %31, ptr %8, align 4
  call void @_ZNSt7__cxx1112basic_stringIcSt11char_traitsIcESaIcEED1Ev(ptr noundef nonnull align 8 dereferenceable(32) %5) #3
  br label %32

32:                                               ; preds = %28, %24
  call void @_ZNSaIcED1Ev(ptr noundef nonnull align 1 dereferenceable(1) %6) #3
  br label %34

33:                                               ; preds = %18, %15, %12, %2
  ret void

34:                                               ; preds = %32
  %35 = load ptr, ptr %7, align 8
  %36 = load i32, ptr %8, align 4
  %37 = insertvalue { ptr, i32 } poison, ptr %35, 0
  %38 = insertvalue { ptr, i32 } %37, i32 %36, 1
  resume { ptr, i32 } %38
}