; Function Attrs: mustprogress uwtable
define void @_ZN10open_spiel9dou_dizhu13DouDizhuState13DoApplyActionEl(ptr noundef nonnull align 8 captures(none) dereferenceable(660) %0, i64 noundef %1) unnamed_addr #3 align 2 personality ptr @__gxx_personality_v0 {
  %3 = alloca %"class.std::__cxx11::basic_string", align 8
  %4 = alloca %"class.std::allocator", align 1
  %5 = getelementptr inbounds nuw i8, ptr %0, i64 132
  %6 = load i32, ptr %5, align 4
  switch i32 %6, label %21 [
    i32 0, label %7
    i32 1, label %9
    i32 2, label %11
    i32 3, label %13
  ]

7:                                                ; preds = %2
  %8 = trunc i64 %1 to i32
  tail call void @_ZN10open_spiel9dou_dizhu13DouDizhuState15ApplyDealActionEi(ptr noundef nonnull align 8 dereferenceable(660) %0, i32 noundef %8)
  br label %21

9:                                                ; preds = %2
  %10 = trunc i64 %1 to i32
  tail call void @_ZN10open_spiel9dou_dizhu13DouDizhuState18ApplyBiddingActionEi(ptr noundef nonnull align 8 dereferenceable(660) %0, i32 noundef %10)
  br label %21

11:                                               ; preds = %2
  %12 = trunc i64 %1 to i32
  tail call void @_ZN10open_spiel9dou_dizhu13DouDizhuState15ApplyPlayActionEi(ptr noundef nonnull align 8 dereferenceable(660) %0, i32 noundef %12)
  br label %21

13:                                               ; preds = %2
  call void @_ZNSaIcEC1Ev(ptr noundef nonnull align 1 dereferenceable(1) %4) #27
  invoke void @_ZNSt7__cxx1112basic_stringIcSt11char_traitsIcESaIcEEC2IS3_EEPKcRKS3_(ptr noundef nonnull align 8 dereferenceable(32) %3, ptr noundef nonnull @.str.45, ptr noundef nonnull align 1 dereferenceable(1) %4)
          to label %14 unwind label %16

14:                                               ; preds = %13
  invoke void @_ZN10open_spiel15SpielFatalErrorERKNSt7__cxx1112basic_stringIcSt11char_traitsIcESaIcEEE(ptr noundef nonnull align 8 dereferenceable(32) %3) #26
          to label %15 unwind label %18

15:                                               ; preds = %14
  unreachable

16:                                               ; preds = %13
  %17 = landingpad { ptr, i32 }
          cleanup
  br label %20

18:                                               ; preds = %14
  %19 = landingpad { ptr, i32 }
          cleanup
  call void @_ZNSt7__cxx1112basic_stringIcSt11char_traitsIcESaIcEED1Ev(ptr noundef nonnull align 8 dereferenceable(32) %3) #27
  br label %20

20:                                               ; preds = %18, %16
  %.pn = phi { ptr, i32 } [ %19, %18 ], [ %17, %16 ]
  call void @_ZNSaIcED1Ev(ptr noundef nonnull align 1 dereferenceable(1) %4) #27
  resume { ptr, i32 } %.pn

21:                                               ; preds = %11, %9, %7, %2
  ret void
}